; ModuleID = '1/2211.c'
source_filename = "1/2211.c"
target datalayout = "e-m:e-p270:32:32-p271:32:32-p272:64:64-i64:64-f80:128-n8:16:32:64-S128"
target triple = "x86_64-pc-linux-gnu"

@a = dso_local global [40000 x i32] zeroinitializer, align 16
@.str = private unnamed_addr constant [3 x i8] c"%d\00", align 1
@.str.1 = private unnamed_addr constant [4 x i8] c"%d\0A\00", align 1

; Function Attrs: noinline nounwind uwtable
define dso_local void @fun(i32 %0, i32 %1, i32 %2) #0 {
  %4 = alloca i32, align 4
  %5 = alloca i32, align 4
  %6 = alloca i32, align 4
  %7 = alloca i32, align 4
  store i32 %0, i32* %4, align 4
  store i32 %1, i32* %5, align 4
  store i32 %2, i32* %6, align 4
  %8 = load i32, i32* %5, align 4
  store i32 %8, i32* %7, align 4
  br label %9

9:                                                ; preds = %34, %3
  %10 = load i32, i32* %7, align 4
  %11 = sitofp i32 %10 to double
  %12 = load i32, i32* %4, align 4
  %13 = sitofp i32 %12 to double
  %14 = call double @sqrt(double %13) #4
  %15 = fcmp ole double %11, %14
  br i1 %15, label %16, label %37

16:                                               ; preds = %9
  %17 = load i32, i32* %4, align 4
  %18 = load i32, i32* %7, align 4
  %19 = srem i32 %17, %18
  %20 = icmp eq i32 %19, 0
  br i1 %20, label %21, label %33

21:                                               ; preds = %16
  %22 = load i32, i32* %7, align 4
  store i32 %22, i32* %5, align 4
  %23 = load i32, i32* %6, align 4
  %24 = sext i32 %23 to i64
  %25 = getelementptr inbounds [40000 x i32], [40000 x i32]* @a, i64 0, i64 %24
  %26 = load i32, i32* %25, align 4
  %27 = add nsw i32 %26, 1
  store i32 %27, i32* %25, align 4
  %28 = load i32, i32* %4, align 4
  %29 = load i32, i32* %7, align 4
  %30 = sdiv i32 %28, %29
  %31 = load i32, i32* %5, align 4
  %32 = load i32, i32* %6, align 4
  call void @fun(i32 %30, i32 %31, i32 %32)
  br label %33

33:                                               ; preds = %21, %16
  br label %34

34:                                               ; preds = %33
  %35 = load i32, i32* %7, align 4
  %36 = add nsw i32 %35, 1
  store i32 %36, i32* %7, align 4
  br label %9

37:                                               ; preds = %9
  ret void
}

; Function Attrs: nounwind
declare dso_local double @sqrt(double) #1

; Function Attrs: noinline nounwind uwtable
define dso_local i32 @main() #0 {
  %1 = alloca i32, align 4
  %2 = alloca i32, align 4
  %3 = alloca [40000 x i32], align 16
  %4 = alloca i32, align 4
  store i32 0, i32* %1, align 4
  %5 = bitcast [40000 x i32]* %3 to i8*
  call void @llvm.memset.p0i8.i64(i8* align 16 %5, i8 0, i64 160000, i1 false)
  %6 = call i32 (i8*, ...) @__isoc99_scanf(i8* getelementptr inbounds ([3 x i8], [3 x i8]* @.str, i64 0, i64 0), i32* %2)
  store i32 1, i32* %4, align 4
  br label %7

7:                                                ; preds = %16, %0
  %8 = load i32, i32* %4, align 4
  %9 = load i32, i32* %2, align 4
  %10 = icmp sle i32 %8, %9
  br i1 %10, label %11, label %19

11:                                               ; preds = %7
  %12 = load i32, i32* %4, align 4
  %13 = sext i32 %12 to i64
  %14 = getelementptr inbounds [40000 x i32], [40000 x i32]* %3, i64 0, i64 %13
  %15 = call i32 (i8*, ...) @__isoc99_scanf(i8* getelementptr inbounds ([3 x i8], [3 x i8]* @.str, i64 0, i64 0), i32* %14)
  br label %16

16:                                               ; preds = %11
  %17 = load i32, i32* %4, align 4
  %18 = add nsw i32 %17, 1
  store i32 %18, i32* %4, align 4
  br label %7

19:                                               ; preds = %7
  store i32 1, i32* %4, align 4
  br label %20

20:                                               ; preds = %30, %19
  %21 = load i32, i32* %4, align 4
  %22 = load i32, i32* %2, align 4
  %23 = icmp sle i32 %21, %22
  br i1 %23, label %24, label %33

24:                                               ; preds = %20
  %25 = load i32, i32* %4, align 4
  %26 = sext i32 %25 to i64
  %27 = getelementptr inbounds [40000 x i32], [40000 x i32]* %3, i64 0, i64 %26
  %28 = load i32, i32* %27, align 4
  %29 = load i32, i32* %4, align 4
  call void @fun(i32 %28, i32 2, i32 %29)
  br label %30

30:                                               ; preds = %24
  %31 = load i32, i32* %4, align 4
  %32 = add nsw i32 %31, 1
  store i32 %32, i32* %4, align 4
  br label %20

33:                                               ; preds = %20
  store i32 1, i32* %4, align 4
  br label %34

34:                                               ; preds = %45, %33
  %35 = load i32, i32* %4, align 4
  %36 = load i32, i32* %2, align 4
  %37 = icmp sle i32 %35, %36
  br i1 %37, label %38, label %48

38:                                               ; preds = %34
  %39 = load i32, i32* %4, align 4
  %40 = sext i32 %39 to i64
  %41 = getelementptr inbounds [40000 x i32], [40000 x i32]* @a, i64 0, i64 %40
  %42 = load i32, i32* %41, align 4
  %43 = add nsw i32 %42, 1
  %44 = call i32 (i8*, ...) @printf(i8* getelementptr inbounds ([4 x i8], [4 x i8]* @.str.1, i64 0, i64 0), i32 %43)
  br label %45

45:                                               ; preds = %38
  %46 = load i32, i32* %4, align 4
  %47 = add nsw i32 %46, 1
  store i32 %47, i32* %4, align 4
  br label %34

48:                                               ; preds = %34
  ret i32 0
}

; Function Attrs: argmemonly nounwind willreturn
declare void @llvm.memset.p0i8.i64(i8* nocapture writeonly, i8, i64, i1 immarg) #2

declare dso_local i32 @__isoc99_scanf(i8*, ...) #3

declare dso_local i32 @printf(i8*, ...) #3


!llvm.module.flags = !{!0}
!llvm.ident = !{!1}

!0 = !{i32 1, !"wchar_size", i32 4}
!1 = !{!"clang version 10.0.0-4ubuntu1 "}
