; ModuleID = 'source-C-CXX/0/2211.c'
source_filename = "source-C-CXX/0/2211.c"
target datalayout = "e-m:e-p270:32:32-p271:32:32-p272:64:64-i64:64-f80:128-n8:16:32:64-S128"
target triple = "x86_64-pc-linux-gnu"

@a = dso_local local_unnamed_addr global [40000 x i32] zeroinitializer, align 16
@.str = private unnamed_addr constant [3 x i8] c"%d\00", align 1
@.str.1 = private unnamed_addr constant [4 x i8] c"%d\0A\00", align 1

; Function Attrs: nofree nounwind sspstrong uwtable
define dso_local void @fun(i32 %0, i32 %1, i32 %2) local_unnamed_addr #0 {
  %4 = sitofp i32 %0 to double
  %5 = sext i32 %2 to i64
  %6 = getelementptr inbounds [40000 x i32], [40000 x i32]* @a, i64 0, i64 %5
  %7 = sitofp i32 %1 to double
  %8 = tail call double @sqrt(double %4) #5
  %9 = fcmp ult double %8, %7
  br i1 %9, label %23, label %10

10:                                               ; preds = %3, %18
  %11 = phi i32 [ %19, %18 ], [ %1, %3 ]
  %12 = srem i32 %0, %11
  %13 = sdiv i32 %0, %11
  %14 = icmp eq i32 %12, 0
  br i1 %14, label %15, label %18

15:                                               ; preds = %10
  %16 = load i32, i32* %6, align 4, !tbaa !5
  %17 = add nsw i32 %16, 1
  store i32 %17, i32* %6, align 4, !tbaa !5
  tail call void @fun(i32 %13, i32 %11, i32 %2)
  br label %18

18:                                               ; preds = %10, %15
  %19 = add nsw i32 %11, 1
  %20 = sitofp i32 %19 to double
  %21 = tail call double @sqrt(double %4) #5
  %22 = fcmp ult double %21, %20
  br i1 %22, label %23, label %10, !llvm.loop !9

23:                                               ; preds = %18, %3
  ret void
}

; Function Attrs: argmemonly mustprogress nofree nosync nounwind willreturn
declare void @llvm.lifetime.start.p0i8(i64 immarg, i8* nocapture) #1

; Function Attrs: mustprogress nofree nounwind willreturn
declare double @sqrt(double) local_unnamed_addr #2

; Function Attrs: argmemonly mustprogress nofree nosync nounwind willreturn
declare void @llvm.lifetime.end.p0i8(i64 immarg, i8* nocapture) #1

; Function Attrs: nofree nounwind sspstrong uwtable
define dso_local i32 @main() local_unnamed_addr #0 {
  %1 = alloca i32, align 4
  %2 = alloca [40000 x i32], align 16
  %3 = bitcast i32* %1 to i8*
  call void @llvm.lifetime.start.p0i8(i64 4, i8* nonnull %3) #5
  %4 = bitcast [40000 x i32]* %2 to i8*
  call void @llvm.lifetime.start.p0i8(i64 160000, i8* nonnull %4) #5
  call void @llvm.memset.p0i8.i64(i8* noundef nonnull align 16 dereferenceable(160000) %4, i8 0, i64 160000, i1 false)
  %5 = call i32 (i8*, ...) @__isoc99_scanf(i8* getelementptr inbounds ([3 x i8], [3 x i8]* @.str, i64 0, i64 0), i32* nonnull %1)
  %6 = load i32, i32* %1, align 4, !tbaa !5
  %7 = icmp slt i32 %6, 1
  br i1 %7, label %39, label %10

8:                                                ; preds = %10
  %9 = icmp slt i32 %15, 1
  br i1 %9, label %39, label %20

10:                                               ; preds = %0, %10
  %11 = phi i64 [ %14, %10 ], [ 1, %0 ]
  %12 = getelementptr inbounds [40000 x i32], [40000 x i32]* %2, i64 0, i64 %11
  %13 = call i32 (i8*, ...) @__isoc99_scanf(i8* getelementptr inbounds ([3 x i8], [3 x i8]* @.str, i64 0, i64 0), i32* nonnull %12)
  %14 = add nuw nsw i64 %11, 1
  %15 = load i32, i32* %1, align 4, !tbaa !5
  %16 = sext i32 %15 to i64
  %17 = icmp slt i64 %11, %16
  br i1 %17, label %10, label %8, !llvm.loop !11

18:                                               ; preds = %20
  %19 = icmp slt i32 %26, 1
  br i1 %19, label %39, label %29

20:                                               ; preds = %8, %20
  %21 = phi i64 [ %25, %20 ], [ 1, %8 ]
  %22 = getelementptr inbounds [40000 x i32], [40000 x i32]* %2, i64 0, i64 %21
  %23 = load i32, i32* %22, align 4, !tbaa !5
  %24 = trunc i64 %21 to i32
  call void @fun(i32 %23, i32 2, i32 %24)
  %25 = add nuw nsw i64 %21, 1
  %26 = load i32, i32* %1, align 4, !tbaa !5
  %27 = sext i32 %26 to i64
  %28 = icmp slt i64 %21, %27
  br i1 %28, label %20, label %18, !llvm.loop !12

29:                                               ; preds = %18, %29
  %30 = phi i64 [ %35, %29 ], [ 1, %18 ]
  %31 = getelementptr inbounds [40000 x i32], [40000 x i32]* @a, i64 0, i64 %30
  %32 = load i32, i32* %31, align 4, !tbaa !5
  %33 = add nsw i32 %32, 1
  %34 = call i32 (i8*, ...) @printf(i8* nonnull dereferenceable(1) getelementptr inbounds ([4 x i8], [4 x i8]* @.str.1, i64 0, i64 0), i32 %33)
  %35 = add nuw nsw i64 %30, 1
  %36 = load i32, i32* %1, align 4, !tbaa !5
  %37 = sext i32 %36 to i64
  %38 = icmp slt i64 %30, %37
  br i1 %38, label %29, label %39, !llvm.loop !13

39:                                               ; preds = %29, %0, %8, %18
  call void @llvm.lifetime.end.p0i8(i64 160000, i8* nonnull %4) #5
  call void @llvm.lifetime.end.p0i8(i64 4, i8* nonnull %3) #5
  ret i32 0
}

; Function Attrs: argmemonly mustprogress nofree nounwind willreturn writeonly
declare void @llvm.memset.p0i8.i64(i8* nocapture writeonly, i8, i64, i1 immarg) #3

; Function Attrs: nofree nounwind
declare noundef i32 @__isoc99_scanf(i8* nocapture noundef readonly, ...) local_unnamed_addr #4

; Function Attrs: nofree nounwind
declare noundef i32 @printf(i8* nocapture noundef readonly, ...) local_unnamed_addr #4


!llvm.module.flags = !{!0, !1, !2, !3}
!llvm.ident = !{!4}

!0 = !{i32 1, !"wchar_size", i32 4}
!1 = !{i32 7, !"PIC Level", i32 2}
!2 = !{i32 7, !"PIE Level", i32 2}
!3 = !{i32 7, !"uwtable", i32 1}
!4 = !{!"clang version 13.0.0"}
!5 = !{!6, !6, i64 0}
!6 = !{!"int", !7, i64 0}
!7 = !{!"omnipotent char", !8, i64 0}
!8 = !{!"Simple C/C++ TBAA"}
!9 = distinct !{!9, !10}
!10 = !{!"llvm.loop.mustprogress"}
!11 = distinct !{!11, !10}
!12 = distinct !{!12, !10}
!13 = distinct !{!13, !10}
